target datalayout = "e-m:e-p270:32:32-p271:32:32-p272:64:64-i64:64-i128:128-f80:128-n8:16:32:64-S128"
target triple = "x86_64-pc-linux-gnu"

@g_filterOp = hidden global ptr null, align 8

; Function Attrs: mustprogress nounwind uwtable
define hidden void @_Z18changeModeCallbackiPv(i32 noundef %0, ptr noundef %1) #5 {
  %3 = alloca i32, align 4
  %4 = alloca ptr, align 8
  store i32 %0, ptr %3, align 4
  store ptr %1, ptr %4, align 8
  %5 = load i32, ptr %3, align 4
  %6 = icmp eq i32 %5, 1
  br i1 %6, label %7, label %9

7:                                                ; preds = %2
  %8 = load ptr, ptr %4, align 8
  store ptr %8, ptr @g_filterOp, align 8
  br label %9

9:                                                ; preds = %7, %2
  ret void
}