; Function Attrs: mustprogress nofree norecurse nosync nounwind willreturn memory(write, argmem: none, inaccessiblemem: none) uwtable
define hidden void @_Z18changeModeCallbackiPv(i32 noundef %0, ptr noundef %1) #5 {
  %3 = icmp eq i32 %0, 1
  br i1 %3, label %4, label %5

4:                                                ; preds = %2
  store ptr %1, ptr @g_filterOp, align 8
  br label %5

5:                                                ; preds = %4, %2
  ret void
}